; Function Attrs: mustprogress nofree nounwind willreturn memory(write, argmem: readwrite) uwtable
define dso_local void @_ZN24btInverseDynamicsBullet310transformXERKf(ptr dead_on_unwind noalias writable writeonly sret(%"class.btInverseDynamicsBullet3::mat33") align 4 captures(none) initializes((0, 12), (16, 28), (32, 44)) %0, ptr noundef nonnull readonly align 4 captures(none) dereferenceable(4) %1) local_unnamed_addr #9 {
  %3 = load float, ptr %1, align 4, !tbaa !4
  %4 = tail call noundef float @cosf(float noundef %3) #14, !tbaa !32
  %5 = tail call noundef float @sinf(float noundef %3) #14, !tbaa !32
  store float 1.000000e+00, ptr %0, align 4, !tbaa !4
  %6 = getelementptr inbounds nuw i8, ptr %0, i64 4
  store float 0.000000e+00, ptr %6, align 4, !tbaa !4
  %7 = getelementptr inbounds nuw i8, ptr %0, i64 8
  store float 0.000000e+00, ptr %7, align 4, !tbaa !4
  %8 = getelementptr inbounds nuw i8, ptr %0, i64 16
  store float 0.000000e+00, ptr %8, align 4, !tbaa !4
  %9 = getelementptr inbounds nuw i8, ptr %0, i64 20
  store float %4, ptr %9, align 4, !tbaa !4
  %10 = getelementptr inbounds nuw i8, ptr %0, i64 24
  store float %5, ptr %10, align 4, !tbaa !4
  %11 = getelementptr inbounds nuw i8, ptr %0, i64 32
  store float 0.000000e+00, ptr %11, align 4, !tbaa !4
  %12 = fneg float %5
  %13 = getelementptr inbounds nuw i8, ptr %0, i64 36
  store float %12, ptr %13, align 4, !tbaa !4
  %14 = getelementptr inbounds nuw i8, ptr %0, i64 40
  store float %4, ptr %14, align 4, !tbaa !4
  ret void
}